Certificate:
    Data:
        Version: 3 (0x2)
        Serial Number: 1 (0x1)
    Signature Algorithm: sha256WithRSAEncryption
        Issuer: CN=106.3.133.214
        Validity
            Not Before: Dec  1 13:24:26 2017 GMT
            Not After : Nov 29 13:24:26 2027 GMT
        Subject: CN=106.3.133.214
        Subject Public Key Info:
            Public Key Algorithm: rsaEncryption
                Public-Key: (2048 bit)
                Modulus:
                    00:d5:25:4b:97:f7:9c:c4:d0:d5:2d:ce:a6:ff:63:
                    99:80:36:b1:cf:38:f8:6b:c8:cb:33:3f:d5:4a:ad:
                    78:39:18:78:14:37:5e:49:33:a5:ea:37:ba:17:b3:
                    96:f3:2b:77:19:92:7a:9e:7b:d0:8f:7c:09:8d:9f:
                    30:50:77:00:46:ff:8a:81:2f:66:ae:91:76:eb:b1:
                    fc:48:c8:0c:b7:63:43:9b:83:08:d9:58:79:66:1f:
                    fd:d6:0d:40:5c:c5:8b:3a:e7:0b:3d:76:73:22:78:
                    23:7f:eb:98:ad:de:ea:27:4b:84:66:cb:3a:34:2f:
                    2a:7f:84:1e:33:61:91:5f:49:d0:6f:50:6a:8e:07:
                    2a:ca:5f:5c:01:b3:68:b4:f9:94:41:73:c1:ce:b4:
                    81:fb:97:56:c5:c9:4f:45:60:7c:e6:d6:c2:dc:ca:
                    e5:0a:c6:21:99:9e:cc:35:33:bb:24:77:73:c9:fb:
                    99:39:a4:e2:26:b5:c5:8c:1f:da:00:e8:38:a3:22:
                    d1:49:35:33:c2:6d:8d:5a:d2:c3:79:71:3e:28:ce:
                    7d:bc:d3:07:fd:20:7e:5b:8f:34:0d:fa:81:dd:25:
                    28:30:1d:95:96:63:5d:b9:2d:7c:e9:dd:f6:dc:af:
                    83:e9:23:46:f6:15:78:10:12:96:52:7a:b4:ed:6e:
                    7c:3f
                Exponent: 65537 (0x10001)
        X509v3 extensions:
            X509v3 Basic Constraints: 
                CA:FALSE
            X509v3 Subject Key Identifier: 
                A5:50:F9:61:C8:46:3E:7B:FC:76:BF:4C:6D:8B:54:67:5E:A7:61:CF
            X509v3 Authority Key Identifier: 
                keyid:E7:D1:6C:34:3E:72:53:20:4A:5B:38:25:20:13:FB:6A:5C:D3:54:5D
                DirName:/CN=106.3.133.214
                serial:87:A8:E3:4E:74:00:A2:63

            X509v3 Extended Key Usage: 
                TLS Web Server Authentication
            X509v3 Key Usage: 
                Digital Signature, Key Encipherment
    Signature Algorithm: sha256WithRSAEncryption
         31:76:16:c0:a0:31:e2:0c:ac:7c:07:70:4f:ad:64:1a:2f:82:
         42:4e:a8:c9:8d:db:a7:0e:84:36:0e:9f:f1:b3:0c:c3:c0:15:
         75:60:31:41:bd:4b:b8:8a:49:66:9b:b7:15:3e:62:de:ed:f8:
         2d:3e:66:f8:7a:c8:27:f6:03:d5:1b:e4:81:ea:76:27:4c:4c:
         5a:51:36:b2:e5:6e:19:eb:41:e4:27:99:5f:ef:7f:3b:dc:ce:
         ed:1d:23:93:b2:3b:d8:0c:b1:c3:da:ea:26:2d:71:8e:d1:6b:
         0d:ad:45:ea:0b:1e:ca:e4:e7:50:61:e9:03:92:41:cd:0f:8b:
         49:61:bd:f1:58:9d:13:53:b4:74:b9:4c:4a:d4:b4:9a:c3:1d:
         c9:29:99:2e:07:14:bf:91:d8:f0:9e:c1:7d:09:bf:19:e1:d1:
         f9:74:a3:c3:02:63:7e:3f:7d:cf:26:ce:46:5a:c5:79:5f:98:
         30:54:ee:9c:4d:ed:9d:70:a3:0a:05:d7:e4:a3:e5:15:97:22:
         35:57:f8:83:e5:1f:02:d6:08:f6:24:98:ed:f9:0f:e5:bb:d4:
         46:fe:17:6b:d6:b5:16:1b:49:e4:98:a1:8a:7c:d6:c0:03:3a:
         47:8f:6d:50:2f:1a:58:02:21:14:56:35:4b:6b:4c:b4:7e:4d:
         e1:c1:b9:60
-----BEGIN CERTIFICATE-----
MIIDRTCCAi2gAwIBAgIBATANBgkqhkiG9w0BAQsFADAYMRYwFAYDVQQDDA0xMDYu
My4xMzMuMjE0MB4XDTE3MTIwMTEzMjQyNloXDTI3MTEyOTEzMjQyNlowGDEWMBQG
A1UEAwwNMTA2LjMuMTMzLjIxNDCCASIwDQYJKoZIhvcNAQEBBQADggEPADCCAQoC
ggEBANUlS5f3nMTQ1S3Opv9jmYA2sc84+GvIyzM/1UqteDkYeBQ3Xkkzpeo3uhez
lvMrdxmSep570I98CY2fMFB3AEb/ioEvZq6Rduux/EjIDLdjQ5uDCNlYeWYf/dYN
QFzFizrnCz12cyJ4I3/rmK3e6idLhGbLOjQvKn+EHjNhkV9J0G9Qao4HKspfXAGz
aLT5lEFzwc60gfuXVsXJT0VgfObWwtzK5QrGIZmezDUzuyR3c8n7mTmk4ia1xYwf
2gDoOKMi0Uk1M8JtjVrSw3lxPijOfbzTB/0gfluPNA36gd0lKDAdlZZjXbktfOnd
9tyvg+kjRvYVeBASllJ6tO1ufD8CAwEAAaOBmTCBljAJBgNVHRMEAjAAMB0GA1Ud
DgQWBBSlUPlhyEY+e/x2v0xti1RnXqdhzzBIBgNVHSMEQTA/gBTn0Ww0PnJTIEpb
OCUgE/tqXNNUXaEcpBowGDEWMBQGA1UEAwwNMTA2LjMuMTMzLjIxNIIJAIeo4050
AKJjMBMGA1UdJQQMMAoGCCsGAQUFBwMBMAsGA1UdDwQEAwIFoDANBgkqhkiG9w0B
AQsFAAOCAQEAMXYWwKAx4gysfAdwT61kGi+CQk6oyY3bpw6ENg6f8bMMw8AVdWAx
Qb1LuIpJZpu3FT5i3u34LT5m+HrIJ/YD1Rvkgep2J0xMWlE2suVuGetB5CeZX+9/
O9zO7R0jk7I72Ayxw9rqJi1xjtFrDa1F6gseyuTnUGHpA5JBzQ+LSWG98VidE1O0
dLlMStS0msMdySmZLgcUv5HY8J7BfQm/GeHR+XSjwwJjfj99zybORlrFeV+YMFTu
nE3tnXCjCgXX5KPlFZciNVf4g+UfAtYI9iSY7fkP5bvURv4Xa9a1FhtJ5JihinzW
wAM6R49tUC8aWAIhFFY1S2tMtH5N4cG5YA==
-----END CERTIFICATE-----
