Certificate:
    Data:
        Version: 3 (0x2)
        Serial Number: 2 (0x2)
    Signature Algorithm: sha256WithRSAEncryption
        Issuer: CN=106.3.133.214
        Validity
            Not Before: Dec  1 13:24:50 2017 GMT
            Not After : Nov 29 13:24:50 2027 GMT
        Subject: CN=zhongjiaxin
        Subject Public Key Info:
            Public Key Algorithm: rsaEncryption
                Public-Key: (2048 bit)
                Modulus:
                    00:a2:ca:1f:58:b6:b1:c6:e6:f6:29:6f:2b:37:3f:
                    a4:d8:75:ff:57:60:0e:5b:8b:da:96:9c:bb:bf:f6:
                    b3:0e:0e:7e:d5:37:e2:4b:12:f2:eb:94:02:ca:5b:
                    1c:df:f0:39:e7:61:d2:09:e0:2a:41:7a:01:b5:67:
                    65:99:fd:bd:93:bd:46:0c:41:1f:d0:e1:35:8a:78:
                    0f:90:91:0d:13:ff:e9:19:41:81:37:b5:cb:c4:bc:
                    82:a1:c3:c3:14:8f:82:7b:57:f8:02:e9:f0:2c:30:
                    21:18:7d:d6:8e:ed:6c:b1:cd:3d:ac:2d:b4:9e:cd:
                    95:7e:26:9a:89:5c:28:b3:f3:67:91:9f:ae:83:5a:
                    9a:37:ec:de:5e:3a:87:8a:2a:08:57:b4:1b:9b:67:
                    fc:ab:e4:03:e2:17:ae:da:e4:28:a3:1b:51:39:d9:
                    3a:45:e3:90:15:d7:82:17:ac:d5:1b:d5:4e:ea:c5:
                    56:d3:e3:d5:23:1a:14:5f:2b:5e:f0:0a:45:71:7a:
                    ad:4b:ef:d4:13:ae:b9:31:04:d5:63:d7:0a:6b:08:
                    8c:92:e0:0e:83:4a:a2:76:8a:c2:2f:e7:c9:13:a0:
                    5e:42:2e:95:56:b0:69:65:30:52:8b:7c:bc:d5:ed:
                    2e:de:70:bd:bc:78:5e:47:b0:f2:dd:44:6a:bc:e3:
                    7a:03
                Exponent: 65537 (0x10001)
        X509v3 extensions:
            X509v3 Basic Constraints: 
                CA:FALSE
            X509v3 Subject Key Identifier: 
                62:B5:41:30:83:3F:37:BA:76:9F:78:7E:D3:64:19:9F:1A:F5:3B:AD
            X509v3 Authority Key Identifier: 
                keyid:E7:D1:6C:34:3E:72:53:20:4A:5B:38:25:20:13:FB:6A:5C:D3:54:5D
                DirName:/CN=106.3.133.214
                serial:87:A8:E3:4E:74:00:A2:63

            X509v3 Extended Key Usage: 
                TLS Web Client Authentication
            X509v3 Key Usage: 
                Digital Signature
    Signature Algorithm: sha256WithRSAEncryption
         37:13:24:d6:e5:40:7b:27:07:bb:e3:b4:cb:a9:4d:f2:07:55:
         0b:e7:9e:18:33:50:9c:30:2c:11:79:a9:6f:14:5f:c6:f8:ef:
         b5:d5:6b:10:fb:e4:c3:3b:b3:ee:3e:63:78:c0:c5:e7:19:26:
         05:a9:64:4a:96:4a:dc:05:95:9e:66:ea:2e:b5:10:68:96:09:
         3d:ef:f2:5d:e9:fa:17:96:c0:cc:dd:6a:d7:9b:db:30:e4:02:
         7c:c7:6e:28:b6:ca:69:bd:7a:10:cf:46:ef:3b:f1:7b:61:89:
         9c:83:0b:dc:b8:16:3d:c3:03:a8:e5:89:3b:be:51:a6:cf:a2:
         02:d3:19:32:76:e0:fd:b4:46:9d:58:c7:2f:d5:c1:e5:79:b3:
         04:0e:f0:04:d6:55:36:ad:96:89:a6:ab:58:9f:a9:cc:1e:72:
         44:75:bf:60:9a:15:4d:a9:72:32:90:83:39:5a:ef:c0:3e:70:
         f8:23:e5:79:5e:ca:11:25:dc:40:e9:d3:f6:af:ad:b2:75:87:
         e5:b6:87:95:c0:a5:03:40:29:0c:de:51:32:9f:45:5f:82:4b:
         84:c3:fe:16:9f:25:0f:e4:82:b4:46:34:59:47:08:22:c0:ad:
         07:3f:37:27:ca:92:15:e1:97:02:9e:0a:de:3e:aa:94:86:6a:
         0e:8d:15:26
-----BEGIN CERTIFICATE-----
MIIDQzCCAiugAwIBAgIBAjANBgkqhkiG9w0BAQsFADAYMRYwFAYDVQQDDA0xMDYu
My4xMzMuMjE0MB4XDTE3MTIwMTEzMjQ1MFoXDTI3MTEyOTEzMjQ1MFowFjEUMBIG
A1UEAwwLemhvbmdqaWF4aW4wggEiMA0GCSqGSIb3DQEBAQUAA4IBDwAwggEKAoIB
AQCiyh9YtrHG5vYpbys3P6TYdf9XYA5bi9qWnLu/9rMODn7VN+JLEvLrlALKWxzf
8DnnYdIJ4CpBegG1Z2WZ/b2TvUYMQR/Q4TWKeA+QkQ0T/+kZQYE3tcvEvIKhw8MU
j4J7V/gC6fAsMCEYfdaO7WyxzT2sLbSezZV+JpqJXCiz82eRn66DWpo37N5eOoeK
KghXtBubZ/yr5APiF67a5CijG1E52TpF45AV14IXrNUb1U7qxVbT49UjGhRfK17w
CkVxeq1L79QTrrkxBNVj1wprCIyS4A6DSqJ2isIv58kToF5CLpVWsGllMFKLfLzV
7S7ecL28eF5HsPLdRGq843oDAgMBAAGjgZkwgZYwCQYDVR0TBAIwADAdBgNVHQ4E
FgQUYrVBMIM/N7p2n3h+02QZnxr1O60wSAYDVR0jBEEwP4AU59FsND5yUyBKWzgl
IBP7alzTVF2hHKQaMBgxFjAUBgNVBAMMDTEwNi4zLjEzMy4yMTSCCQCHqONOdACi
YzATBgNVHSUEDDAKBggrBgEFBQcDAjALBgNVHQ8EBAMCB4AwDQYJKoZIhvcNAQEL
BQADggEBADcTJNblQHsnB7vjtMupTfIHVQvnnhgzUJwwLBF5qW8UX8b477XVaxD7
5MM7s+4+Y3jAxecZJgWpZEqWStwFlZ5m6i61EGiWCT3v8l3p+heWwMzdateb2zDk
AnzHbii2ymm9ehDPRu878XthiZyDC9y4Fj3DA6jliTu+UabPogLTGTJ24P20Rp1Y
xy/VweV5swQO8ATWVTatlommq1ifqcweckR1v2CaFU2pcjKQgzla78A+cPgj5Xle
yhEl3EDp0/avrbJ1h+W2h5XApQNAKQzeUTKfRV+CS4TD/hafJQ/kgrRGNFlHCCLA
rQc/NyfKkhXhlwKeCt4+qpSGag6NFSY=
-----END CERTIFICATE-----
